target datalayout = "e-m:e-p270:32:32-p271:32:32-p272:64:64-i64:64-i128:128-f80:128-n8:16:32:64-S128"
target triple = "x86_64-pc-linux-gnu"

%union.pthread_mutex_t = type { %struct.__pthread_mutex_s }
%struct.__pthread_mutex_s = type { i32, i32, i32, i32, i32, i16, i16, %struct.__pthread_internal_list }
%struct.__pthread_internal_list = type { ptr, ptr }
%struct.wolfSSL_RefWithMutex = type { %union.pthread_mutex_t, i32 }
%struct.WC_RNG = type { %struct.OS_Seed, ptr, ptr, i8 }
%struct.OS_Seed = type { i32 }
%struct.WOLFSSL_CTX = type <{ ptr, %struct.wolfSSL_RefWithMutex, i32, [4 x i8], %struct.WOLFSSL_BUFFER_INFO, %struct.WOLFSSL_BUFFER_INFO, ptr, ptr, i32, [4 x i8], ptr, i8, i8, [2 x i8], i32, i32, [4 x i8], ptr, ptr, ptr, i8, i16, i8, i8, i8, i16, i16, i16, i16, [2 x i8], i64, ptr, ptr, ptr, ptr, i32, i32, i16, [2 x i8], i32, [10 x i16], i8, [3 x i8], ptr, ptr, i32, [4 x i8], ptr, i8, [7 x i8] }>
%struct.WOLFSSL_BUFFER_INFO = type { ptr, i32 }
%struct.sp_int = type { i16, i16, [129 x i64] }
%struct.DhKey = type { %struct.sp_int, %struct.sp_int, %struct.sp_int, ptr, i32 }

; Function Attrs: nounwind uwtable
define internal i32 @wolfssl_check_dh_key(ptr noundef %0, i32 noundef %1, ptr noundef %2, i32 noundef %3) #0 {
  %5 = alloca ptr, align 8
  %6 = alloca i32, align 4
  %7 = alloca ptr, align 8
  %8 = alloca i32, align 4
  %9 = alloca %struct.WC_RNG, align 8
  %10 = alloca i32, align 4
  %11 = alloca [1 x %struct.DhKey], align 16
  store ptr %0, ptr %5, align 8, !tbaa !21
  store i32 %1, ptr %6, align 4, !tbaa !7
  store ptr %2, ptr %7, align 8, !tbaa !21
  store i32 %3, ptr %8, align 4, !tbaa !7
  call void @llvm.lifetime.start.p0(i64 32, ptr %9) #9
  call void @llvm.lifetime.start.p0(i64 4, ptr %10) #9
  store i32 0, ptr %10, align 4, !tbaa !7
  call void @llvm.lifetime.start.p0(i64 3136, ptr %11) #9
  %12 = load i32, ptr %10, align 4, !tbaa !7
  %13 = icmp eq i32 %12, 0
  br i1 %13, label %14, label %32

14:                                               ; preds = %4
  %15 = call i32 @wc_InitRng(ptr noundef %9)
  store i32 %15, ptr %10, align 4, !tbaa !7
  %16 = icmp eq i32 %15, 0
  br i1 %16, label %17, label %32

17:                                               ; preds = %14
  %18 = getelementptr inbounds [1 x %struct.DhKey], ptr %11, i64 0, i64 0
  %19 = call i32 @wc_InitDhKey(ptr noundef %18)
  store i32 %19, ptr %10, align 4, !tbaa !7
  %20 = icmp eq i32 %19, 0
  br i1 %20, label %21, label %30

21:                                               ; preds = %17
  %22 = getelementptr inbounds [1 x %struct.DhKey], ptr %11, i64 0, i64 0
  %23 = load ptr, ptr %5, align 8, !tbaa !21
  %24 = load i32, ptr %6, align 4, !tbaa !7
  %25 = load ptr, ptr %7, align 8, !tbaa !21
  %26 = load i32, ptr %8, align 4, !tbaa !7
  %27 = call i32 @wc_DhSetCheckKey(ptr noundef %22, ptr noundef %23, i32 noundef %24, ptr noundef %25, i32 noundef %26, ptr noundef null, i32 noundef 0, i32 noundef 0, ptr noundef %9)
  store i32 %27, ptr %10, align 4, !tbaa !7
  %28 = getelementptr inbounds [1 x %struct.DhKey], ptr %11, i64 0, i64 0
  %29 = call i32 @wc_FreeDhKey(ptr noundef %28)
  br label %30

30:                                               ; preds = %21, %17
  %31 = call i32 @wc_FreeRng(ptr noundef %9)
  br label %32

32:                                               ; preds = %30, %14, %4
  %33 = load i32, ptr %10, align 4, !tbaa !7
  %34 = icmp eq i32 %33, 0
  br i1 %34, label %35, label %36

35:                                               ; preds = %32
  br label %38

36:                                               ; preds = %32
  %37 = load i32, ptr %10, align 4, !tbaa !7
  br label %38

38:                                               ; preds = %36, %35
  %39 = phi i32 [ 1, %35 ], [ %37, %36 ]
  call void @llvm.lifetime.end.p0(i64 3136, ptr %11) #9
  call void @llvm.lifetime.end.p0(i64 4, ptr %10) #9
  call void @llvm.lifetime.end.p0(i64 32, ptr %9) #9
  ret i32 %39
}

; Function Attrs: nounwind uwtable
define internal i32 @wolfssl_ctx_set_tmp_dh(ptr noundef %0, ptr noundef %1, i32 noundef %2, ptr noundef %3, i32 noundef %4) #0 {
  %6 = alloca ptr, align 8
  %7 = alloca ptr, align 8
  %8 = alloca i32, align 4
  %9 = alloca ptr, align 8
  %10 = alloca i32, align 4
  %11 = alloca i32, align 4
  %12 = alloca ptr, align 8
  %13 = alloca ptr, align 8
  store ptr %0, ptr %6, align 8, !tbaa !24
  store ptr %1, ptr %7, align 8, !tbaa !21
  store i32 %2, ptr %8, align 4, !tbaa !7
  store ptr %3, ptr %9, align 8, !tbaa !21
  store i32 %4, ptr %10, align 4, !tbaa !7
  call void @llvm.lifetime.start.p0(i64 4, ptr %11) #9
  store i32 1, ptr %11, align 4, !tbaa !7
  br label %14

14:                                               ; preds = %5
  br label %15

15:                                               ; preds = %14
  br label %16

16:                                               ; preds = %15
  %17 = load i32, ptr %8, align 4, !tbaa !7
  %18 = trunc i32 %17 to i16
  %19 = zext i16 %18 to i32
  %20 = load ptr, ptr %6, align 8, !tbaa !24
  %21 = getelementptr inbounds nuw %struct.WOLFSSL_CTX, ptr %20, i32 0, i32 25
  %22 = load i16, ptr %21, align 2, !tbaa !174
  %23 = zext i16 %22 to i32
  %24 = icmp slt i32 %19, %23
  br i1 %24, label %34, label %25

25:                                               ; preds = %16
  %26 = load i32, ptr %8, align 4, !tbaa !7
  %27 = trunc i32 %26 to i16
  %28 = zext i16 %27 to i32
  %29 = load ptr, ptr %6, align 8, !tbaa !24
  %30 = getelementptr inbounds nuw %struct.WOLFSSL_CTX, ptr %29, i32 0, i32 26
  %31 = load i16, ptr %30, align 8, !tbaa !176
  %32 = zext i16 %31 to i32
  %33 = icmp sgt i32 %28, %32
  br i1 %33, label %34, label %35

34:                                               ; preds = %25, %16
  store i32 -401, ptr %11, align 4, !tbaa !7
  br label %35

35:                                               ; preds = %34, %25
  %36 = load i32, ptr %11, align 4, !tbaa !7
  %37 = icmp eq i32 %36, 1
  br i1 %37, label %38, label %55

38:                                               ; preds = %35
  %39 = load ptr, ptr %7, align 8, !tbaa !21
  %40 = load i32, ptr %8, align 4, !tbaa !7
  %41 = load ptr, ptr %9, align 8, !tbaa !21
  %42 = load i32, ptr %10, align 4, !tbaa !7
  %43 = call i32 @wolfssl_check_dh_key(ptr noundef %39, i32 noundef %40, ptr noundef %41, i32 noundef %42)
  store i32 %43, ptr %11, align 4, !tbaa !7
  %44 = load i32, ptr %11, align 4, !tbaa !7
  %45 = icmp eq i32 %44, 1
  %46 = zext i1 %45 to i32
  %47 = trunc i32 %46 to i8
  %48 = load ptr, ptr %6, align 8, !tbaa !24
  %49 = getelementptr inbounds nuw %struct.WOLFSSL_CTX, ptr %48, i32 0, i32 24
  %50 = load i8, ptr %49, align 1
  %51 = and i8 %47, 1
  %52 = shl i8 %51, 4
  %53 = and i8 %50, -17
  %54 = or i8 %53, %52
  store i8 %54, ptr %49, align 1
  br label %55

55:                                               ; preds = %38, %35
  %56 = load i32, ptr %11, align 4, !tbaa !7
  %57 = icmp eq i32 %56, 1
  br i1 %57, label %58, label %104

58:                                               ; preds = %55
  br label %59

59:                                               ; preds = %58
  call void @llvm.lifetime.start.p0(i64 8, ptr %12) #9
  %60 = load ptr, ptr %6, align 8, !tbaa !24
  %61 = getelementptr inbounds nuw %struct.WOLFSSL_CTX, ptr %60, i32 0, i32 4
  %62 = getelementptr inbounds nuw %struct.WOLFSSL_BUFFER_INFO, ptr %61, i32 0, i32 0
  %63 = load ptr, ptr %62, align 8, !tbaa !243
  store ptr %63, ptr %12, align 8, !tbaa !3
  %64 = load ptr, ptr %12, align 8, !tbaa !3
  %65 = icmp ne ptr %64, null
  br i1 %65, label %66, label %68

66:                                               ; preds = %59
  %67 = load ptr, ptr %12, align 8, !tbaa !3
  call void @wolfSSL_Free(ptr noundef %67)
  br label %68

68:                                               ; preds = %66, %59
  call void @llvm.lifetime.end.p0(i64 8, ptr %12) #9
  br label %69

69:                                               ; preds = %68
  br label %70

70:                                               ; preds = %69
  br label %71

71:                                               ; preds = %70
  call void @llvm.lifetime.start.p0(i64 8, ptr %13) #9
  %72 = load ptr, ptr %6, align 8, !tbaa !24
  %73 = getelementptr inbounds nuw %struct.WOLFSSL_CTX, ptr %72, i32 0, i32 5
  %74 = getelementptr inbounds nuw %struct.WOLFSSL_BUFFER_INFO, ptr %73, i32 0, i32 0
  %75 = load ptr, ptr %74, align 8, !tbaa !244
  store ptr %75, ptr %13, align 8, !tbaa !3
  %76 = load ptr, ptr %13, align 8, !tbaa !3
  %77 = icmp ne ptr %76, null
  br i1 %77, label %78, label %80

78:                                               ; preds = %71
  %79 = load ptr, ptr %13, align 8, !tbaa !3
  call void @wolfSSL_Free(ptr noundef %79)
  br label %80

80:                                               ; preds = %78, %71
  call void @llvm.lifetime.end.p0(i64 8, ptr %13) #9
  br label %81

81:                                               ; preds = %80
  br label %82

82:                                               ; preds = %81
  %83 = load ptr, ptr %7, align 8, !tbaa !21
  %84 = load ptr, ptr %6, align 8, !tbaa !24
  %85 = getelementptr inbounds nuw %struct.WOLFSSL_CTX, ptr %84, i32 0, i32 4
  %86 = getelementptr inbounds nuw %struct.WOLFSSL_BUFFER_INFO, ptr %85, i32 0, i32 0
  store ptr %83, ptr %86, align 8, !tbaa !243
  %87 = load ptr, ptr %9, align 8, !tbaa !21
  %88 = load ptr, ptr %6, align 8, !tbaa !24
  %89 = getelementptr inbounds nuw %struct.WOLFSSL_CTX, ptr %88, i32 0, i32 5
  %90 = getelementptr inbounds nuw %struct.WOLFSSL_BUFFER_INFO, ptr %89, i32 0, i32 0
  store ptr %87, ptr %90, align 8, !tbaa !244
  %91 = load i32, ptr %8, align 4, !tbaa !7
  %92 = load ptr, ptr %6, align 8, !tbaa !24
  %93 = getelementptr inbounds nuw %struct.WOLFSSL_CTX, ptr %92, i32 0, i32 4
  %94 = getelementptr inbounds nuw %struct.WOLFSSL_BUFFER_INFO, ptr %93, i32 0, i32 1
  store i32 %91, ptr %94, align 8, !tbaa !245
  %95 = load i32, ptr %10, align 4, !tbaa !7
  %96 = load ptr, ptr %6, align 8, !tbaa !24
  %97 = getelementptr inbounds nuw %struct.WOLFSSL_CTX, ptr %96, i32 0, i32 5
  %98 = getelementptr inbounds nuw %struct.WOLFSSL_BUFFER_INFO, ptr %97, i32 0, i32 1
  store i32 %95, ptr %98, align 8, !tbaa !246
  %99 = load ptr, ptr %6, align 8, !tbaa !24
  %100 = getelementptr inbounds nuw %struct.WOLFSSL_CTX, ptr %99, i32 0, i32 21
  %101 = load i16, ptr %100, align 1
  %102 = and i16 %101, -1025
  %103 = or i16 %102, 1024
  store i16 %103, ptr %100, align 1
  br label %104

104:                                              ; preds = %82, %55
  br label %105

105:                                              ; preds = %104
  br label %106

106:                                              ; preds = %105
  br label %107

107:                                              ; preds = %106
  %108 = load i32, ptr %11, align 4, !tbaa !7
  call void @llvm.lifetime.end.p0(i64 4, ptr %11) #9
  ret i32 %108
}