; Function Attrs: nounwind uwtable
define internal fastcc range(i32 1, 0) i32 @wolfssl_ctx_set_tmp_dh(ptr noundef captures(none) %0, ptr noundef %1, i32 noundef %2, ptr noundef %3, i32 noundef %4) unnamed_addr #0 {
  %6 = alloca %struct.WC_RNG, align 8
  %7 = alloca [1 x %struct.DhKey], align 16
  %8 = and i32 %2, 65535
  %9 = getelementptr inbounds nuw i8, ptr %0, i64 174
  %10 = load i16, ptr %9, align 2, !tbaa !152
  %11 = zext i16 %10 to i32
  %12 = icmp samesign ult i32 %8, %11
  br i1 %12, label %.thread32, label %13

13:                                               ; preds = %5
  %14 = getelementptr inbounds nuw i8, ptr %0, i64 176
  %15 = load i16, ptr %14, align 8, !tbaa !154
  %16 = zext i16 %15 to i32
  %17 = icmp samesign ugt i32 %8, %16
  br i1 %17, label %.thread32, label %18

18:                                               ; preds = %13
  call void @llvm.lifetime.start.p0(i64 32, ptr nonnull %6) #22
  call void @llvm.lifetime.start.p0(i64 3136, ptr nonnull %7) #22
  %19 = call i32 @wc_InitRng(ptr noundef nonnull %6) #22
  %20 = icmp eq i32 %19, 0
  br i1 %20, label %21, label %29

21:                                               ; preds = %18
  %22 = call i32 @wc_InitDhKey(ptr noundef nonnull %7) #22
  %23 = icmp eq i32 %22, 0
  br i1 %23, label %24, label %27

24:                                               ; preds = %21
  %25 = call i32 @wc_DhSetCheckKey(ptr noundef nonnull %7, ptr noundef %1, i32 noundef %2, ptr noundef %3, i32 noundef %4, ptr noundef null, i32 noundef 0, i32 noundef 0, ptr noundef nonnull %6) #22
  %26 = call i32 @wc_FreeDhKey(ptr noundef nonnull %7) #22
  br label %27

27:                                               ; preds = %24, %21
  %.1.i = phi i32 [ %25, %24 ], [ %22, %21 ]
  %28 = call i32 @wc_FreeRng(ptr noundef nonnull %6) #22
  br label %29

29:                                               ; preds = %27, %18
  %.0.i = phi i32 [ %.1.i, %27 ], [ %19, %18 ]
  call void @llvm.lifetime.end.p0(i64 3136, ptr nonnull %7) #22
  call void @llvm.lifetime.end.p0(i64 32, ptr nonnull %6) #22
  %30 = icmp ult i32 %.0.i, 2
  %31 = getelementptr inbounds nuw i8, ptr %0, i64 173
  %32 = load i8, ptr %31, align 1
  %33 = select i1 %30, i8 16, i8 0
  %34 = and i8 %32, -17
  %35 = or disjoint i8 %34, %33
  store i8 %35, ptr %31, align 1
  br i1 %30, label %36, label %.thread32

36:                                               ; preds = %29
  %37 = getelementptr inbounds nuw i8, ptr %0, i64 64
  %38 = load ptr, ptr %37, align 8, !tbaa !226
  %.not = icmp eq ptr %38, null
  br i1 %.not, label %40, label %39

39:                                               ; preds = %36
  call void @wolfSSL_Free(ptr noundef nonnull %38) #22
  br label %40

40:                                               ; preds = %39, %36
  %41 = getelementptr inbounds nuw i8, ptr %0, i64 80
  %42 = load ptr, ptr %41, align 8, !tbaa !227
  %.not30 = icmp eq ptr %42, null
  br i1 %.not30, label %44, label %43

43:                                               ; preds = %40
  call void @wolfSSL_Free(ptr noundef nonnull %42) #22
  br label %44

44:                                               ; preds = %43, %40
  store ptr %1, ptr %37, align 8, !tbaa !226
  store ptr %3, ptr %41, align 8, !tbaa !227
  %45 = getelementptr inbounds nuw i8, ptr %0, i64 72
  store i32 %2, ptr %45, align 8, !tbaa !228
  %46 = getelementptr inbounds nuw i8, ptr %0, i64 88
  store i32 %4, ptr %46, align 8, !tbaa !229
  %47 = getelementptr inbounds nuw i8, ptr %0, i64 169
  %48 = load i16, ptr %47, align 1
  %49 = or i16 %48, 1024
  store i16 %49, ptr %47, align 1
  br label %.thread32

.thread32:                                        ; preds = %13, %5, %29, %44
  %.134 = phi i32 [ %.0.i, %29 ], [ 1, %44 ], [ -401, %5 ], [ -401, %13 ]
  ret i32 %.134
}